; Function Attrs: mustprogress nounwind uwtable
define hidden void @_ZN6google8protobuf2io19LimitingInputStreamD0Ev(ptr noundef nonnull align 8 dereferenceable(32) initializes((0, 8)) %0) unnamed_addr #8 align 2 personality ptr @__gxx_personality_v0 {
  store ptr getelementptr inbounds nuw inrange(-16, 48) (i8, ptr @_ZTVN6google8protobuf2io19LimitingInputStreamE, i64 16), ptr %0, align 8, !tbaa !3
  %2 = getelementptr inbounds nuw i8, ptr %0, i64 16
  %3 = load i64, ptr %2, align 8, !tbaa !67
  %4 = icmp slt i64 %3, 0
  br i1 %4, label %5, label %_ZN6google8protobuf2io19LimitingInputStreamD2Ev.exit

5:                                                ; preds = %1
  %6 = getelementptr inbounds nuw i8, ptr %0, i64 8
  %7 = load ptr, ptr %6, align 8, !tbaa !64
  %8 = trunc i64 %3 to i32
  %9 = sub i32 0, %8
  %10 = load ptr, ptr %7, align 8, !tbaa !3
  %11 = getelementptr inbounds nuw i8, ptr %10, i64 24
  %12 = load ptr, ptr %11, align 8
  invoke void %12(ptr noundef nonnull align 8 dereferenceable(8) %7, i32 noundef %9)
          to label %_ZN6google8protobuf2io19LimitingInputStreamD2Ev.exit unwind label %13

13:                                               ; preds = %5
  %14 = landingpad { ptr, i32 }
          catch ptr null
  %15 = extractvalue { ptr, i32 } %14, 0
  tail call void @__clang_call_terminate(ptr %15) #22
  unreachable

_ZN6google8protobuf2io19LimitingInputStreamD2Ev.exit: ; preds = %1, %5
  tail call void @_ZdlPv(ptr noundef nonnull %0) #20
  ret void
}